target datalayout = "e-m:e-p270:32:32-p271:32:32-p272:64:64-i64:64-i128:128-f80:128-n8:16:32:64-S128"
target triple = "x86_64-pc-linux-gnu"

%struct.Curl_multi = type { i32, i32, i32, %struct.Curl_llist, %struct.Curl_llist, %struct.Curl_llist, %struct.Curl_llist, i64, ptr, ptr, ptr, ptr, %struct.Curl_hash, ptr, %struct.PslCache, ptr, ptr, i64, ptr, i64, ptr, i64, %struct.Curl_hash, %struct.Curl_hash, %struct.cpool, i64, i64, ptr, ptr, i64, %struct.curltime, [2 x i32], i32, i32, i8, i8 }
%struct.Curl_llist = type { ptr, ptr, ptr, i64 }
%struct.PslCache = type { ptr, i64, i8 }
%struct.Curl_hash = type { ptr, ptr, ptr, ptr, i64, i64 }
%struct.cpool = type { %struct.Curl_hash, i64, i64, i64, %struct.curltime, %struct.Curl_llist, ptr, ptr, ptr, ptr, i8 }
%struct.curltime = type { i64, i32 }

; Function Attrs: nounwind uwtable
define i32 @curl_multi_socket_action(ptr noundef %0, i32 noundef %1, i32 noundef %2, ptr noundef %3) #0 {
  %5 = alloca i32, align 4
  %6 = alloca ptr, align 8
  %7 = alloca i32, align 4
  %8 = alloca i32, align 4
  %9 = alloca ptr, align 8
  %10 = alloca ptr, align 8
  %11 = alloca i32, align 4
  store ptr %0, ptr %6, align 8, !tbaa !7
  store i32 %1, ptr %7, align 4, !tbaa !30
  store i32 %2, ptr %8, align 4, !tbaa !30
  store ptr %3, ptr %9, align 8, !tbaa !156
  call void @llvm.lifetime.start.p0(i64 8, ptr %10) #9
  %12 = load ptr, ptr %6, align 8, !tbaa !7
  store ptr %12, ptr %10, align 8, !tbaa !9
  %13 = load ptr, ptr %10, align 8, !tbaa !9
  %14 = getelementptr inbounds nuw %struct.Curl_multi, ptr %13, i32 0, i32 35
  %15 = load i8, ptr %14, align 1
  %16 = lshr i8 %15, 2
  %17 = and i8 %16, 1
  %18 = zext i8 %17 to i32
  %19 = icmp ne i32 %18, 0
  br i1 %19, label %20, label %21

20:                                               ; preds = %4
  store i32 8, ptr %5, align 4
  store i32 1, ptr %11, align 4
  br label %27

21:                                               ; preds = %4
  %22 = load ptr, ptr %10, align 8, !tbaa !9
  %23 = load i32, ptr %7, align 4, !tbaa !30
  %24 = load i32, ptr %8, align 4, !tbaa !30
  %25 = load ptr, ptr %9, align 8, !tbaa !156
  %26 = call i32 @multi_socket(ptr noundef %22, i1 noundef zeroext false, i32 noundef %23, i32 noundef %24, ptr noundef %25)
  store i32 %26, ptr %5, align 4
  store i32 1, ptr %11, align 4
  br label %27

27:                                               ; preds = %21, %20
  call void @llvm.lifetime.end.p0(i64 8, ptr %10) #9
  %28 = load i32, ptr %5, align 4
  ret i32 %28
}