; Function Attrs: nounwind uwtable
define range(i32 0, 12) i32 @curl_multi_socket_action(ptr noundef %0, i32 noundef %1, i32 noundef %2, ptr noundef %3) local_unnamed_addr #0 {
  %5 = getelementptr inbounds nuw i8, ptr %0, i64 649
  %6 = load i8, ptr %5, align 1
  %7 = and i8 %6, 4
  %.not = icmp eq i8 %7, 0
  br i1 %.not, label %8, label %10

8:                                                ; preds = %4
  %9 = tail call fastcc i32 @multi_socket(ptr noundef nonnull %0, i1 noundef zeroext false, i32 noundef %1, i32 noundef %2, ptr noundef %3)
  br label %10

10:                                               ; preds = %4, %8
  %.0 = phi i32 [ %9, %8 ], [ 8, %4 ]
  ret i32 %.0
}